(dp0
V#
p1
(lp2
V9
p3
aV1
p4
aV2
p5
aV6
p6
aV8
p7
aV7
p8
aV3
p9
aV4
p10
aV5
p11
aV10
p12
asV#0
p13
(lp14
g3
ag4
ag5
ag6
ag7
ag8
ag9
ag10
ag11
ag12
asV#00
p15
(lp16
g3
ag4
ag5
ag6
ag7
ag8
ag9
ag10
ag11
ag12
asV#000
p17
(lp18
g3
ag4
ag5
ag6
ag7
ag8
ag9
ag10
ag11
ag12
asV#0000
p19
(lp20
g3
ag4
ag5
ag6
ag7
ag8
ag9
ag10
ag11
asV#01
p21
(lp22
g3
ag4
ag5
ag6
ag7
ag8
ag9
ag10
ag11
asV#010
p23
(lp24
g3
ag4
ag5
ag7
ag8
ag9
ag10
ag11
asV#0100
p25
(lp26
g3
ag4
ag5
ag8
ag11
asV#011
p27
(lp28
g3
ag4
ag5
ag6
ag7
ag8
ag9
ag10
ag11
asV#0111
p29
(lp30
g3
ag4
ag6
ag7
ag10
ag11
asV#1
p31
(lp32
g3
ag4
ag5
ag6
ag7
ag8
ag9
ag10
ag11
ag12
asV#11
p33
(lp34
g3
ag4
ag5
ag9
ag10
ag12
asV#110
p35
(lp36
g3
ag4
ag5
ag9
ag10
asV#1101
p37
(lp38
g3
ag5
ag9
ag10
asV#0001
p39
(lp40
g4
ag8
ag10
ag12
asV#001
p41
(lp42
g4
ag5
ag6
ag7
ag8
ag9
ag10
ag11
ag12
asV#0011
p43
(lp44
g4
ag6
ag7
ag9
ag10
ag11
ag12
asV#1100
p45
(lp46
g4
ag9
asV#10
p47
(lp48
g4
ag5
ag6
ag7
ag8
ag9
ag10
ag11
ag12
asV#100
p49
(lp50
g4
ag5
ag6
ag7
ag8
ag9
ag10
ag11
ag12
asV#1000
p51
(lp52
g4
ag6
ag7
ag8
ag9
ag11
asV#1001
p53
(lp54
g4
ag5
ag6
ag7
ag8
ag9
ag10
ag11
ag12
asV#0010
p55
(lp56
g5
ag8
ag12
asV#0110
p57
(lp58
g5
ag7
ag8
ag9
asV#101
p59
(lp60
g5
ag6
ag7
ag8
ag10
ag11
ag12
asV#1011
p61
(lp62
g5
ag6
ag10
ag11
ag12
asV#111
p63
(lp64
g5
ag9
ag12
asV#1111
p65
(lp66
g5
ag12
asV#1010
p67
(lp68
g6
ag7
ag8
asV#0101
p69
(lp70
g7
ag8
ag9
ag10
ag11
asV#1110
p71
(lp72
g9
ag12
as.