(dp0
V#
p1
(lp2
V12
p3
aV11
p4
asV0
p5
(lp6
g3
ag4
asV11
p7
(lp8
g3
ag4
asV110
p9
(lp10
g3
asV111
p11
(lp12
g3
ag4
asV1001
p13
(lp14
g3
ag4
asV1011
p15
(lp16
g3
ag4
asV100
p17
(lp18
g4
asV101
p19
(lp20
g4
asV1000
p21
(lp22
g4
as.